target datalayout = "e-m:e-p270:32:32-p271:32:32-p272:64:64-i64:64-i128:128-f80:128-n8:16:32:64-S128"
target triple = "x86_64-pc-linux-gnu"

%struct.pmix_object_t = type { %union.pthread_mutex_t, ptr, i32, %struct.pmix_tma }
%union.pthread_mutex_t = type { %struct.__pthread_mutex_s }
%struct.__pthread_mutex_s = type { i32, i32, i32, i32, i32, i16, i16, %struct.__pthread_internal_list }
%struct.__pthread_internal_list = type { ptr, ptr }
%struct.pmix_tma = type { ptr, ptr, ptr, ptr, ptr, ptr, ptr, ptr }
%struct.pmix_bfrop_type_info_t = type { %struct.pmix_object_t, i16, ptr, ptr, ptr, ptr, ptr }
%struct.pmix_pointer_array_t = type { %struct.pmix_object_t, i32, i32, i32, i32, i32, ptr, ptr }
%struct.pmix_value = type { i16, %union.anon }
%union.anon = type { %struct.pmix_envar_t }
%struct.pmix_envar_t = type { ptr, ptr, i8 }

@.str.1 = private unnamed_addr constant [23 x i8] c"base/bfrop_base_pack.c\00", align 1
@.str.9 = private unnamed_addr constant [44 x i8] c"PACK-PMIX-VALUE[%s:%d]: UNSUPPORTED TYPE %d\00", align 1

; Function Attrs: inlinehint nounwind uwtable
define internal ptr @pmix_pointer_array_get_item(ptr noundef %0, i32 noundef %1) #3 {
  %3 = alloca ptr, align 8
  %4 = alloca ptr, align 8
  %5 = alloca i32, align 4
  %6 = alloca ptr, align 8
  %7 = alloca i32, align 4
  store ptr %0, ptr %4, align 8, !tbaa !3
  store i32 %1, ptr %5, align 4, !tbaa !9
  call void @llvm.lifetime.start.p0(i64 8, ptr %6) #9
  %8 = load i32, ptr %5, align 4, !tbaa !9
  %9 = icmp sgt i32 0, %8
  br i1 %9, label %16, label %10

10:                                               ; preds = %2
  %11 = load ptr, ptr %4, align 8, !tbaa !3
  %12 = getelementptr inbounds nuw %struct.pmix_pointer_array_t, ptr %11, i32 0, i32 3
  %13 = load i32, ptr %12, align 8, !tbaa !22
  %14 = load i32, ptr %5, align 4, !tbaa !9
  %15 = icmp sle i32 %13, %14
  br label %16

16:                                               ; preds = %10, %2
  %17 = phi i1 [ true, %2 ], [ %15, %10 ]
  %18 = xor i1 %17, true
  %19 = xor i1 %18, true
  %20 = zext i1 %19 to i32
  %21 = sext i32 %20 to i64
  %22 = call i64 @llvm.expect.i64(i64 %21, i64 0)
  %23 = icmp ne i64 %22, 0
  br i1 %23, label %24, label %25

24:                                               ; preds = %16
  store ptr null, ptr %3, align 8
  store i32 1, ptr %7, align 4
  br label %34

25:                                               ; preds = %16
  %26 = load ptr, ptr %4, align 8, !tbaa !3
  %27 = getelementptr inbounds nuw %struct.pmix_pointer_array_t, ptr %26, i32 0, i32 7
  %28 = load ptr, ptr %27, align 8, !tbaa !25
  %29 = load i32, ptr %5, align 4, !tbaa !9
  %30 = sext i32 %29 to i64
  %31 = getelementptr inbounds ptr, ptr %28, i64 %30
  %32 = load ptr, ptr %31, align 8, !tbaa !8
  store ptr %32, ptr %6, align 8, !tbaa !8
  %33 = load ptr, ptr %6, align 8, !tbaa !8
  store ptr %33, ptr %3, align 8
  store i32 1, ptr %7, align 4
  br label %34

34:                                               ; preds = %25, %24
  call void @llvm.lifetime.end.p0(i64 8, ptr %6) #9
  %35 = load ptr, ptr %3, align 8
  ret ptr %35
}

; Function Attrs: nounwind uwtable
define i32 @pmix_bfrops_base_pack_val(ptr noundef %0, ptr noundef %1, ptr noundef %2) #0 {
  %4 = alloca i32, align 4
  %5 = alloca ptr, align 8
  %6 = alloca ptr, align 8
  %7 = alloca ptr, align 8
  %8 = alloca i32, align 4
  %9 = alloca ptr, align 8
  %10 = alloca i32, align 4
  %11 = alloca ptr, align 8
  store ptr %0, ptr %5, align 8, !tbaa !3
  store ptr %1, ptr %6, align 8, !tbaa !8
  store ptr %2, ptr %7, align 8, !tbaa !87
  call void @llvm.lifetime.start.p0(i64 4, ptr %8) #9
  %12 = load ptr, ptr %7, align 8, !tbaa !87
  %13 = getelementptr inbounds nuw %struct.pmix_value, ptr %12, i32 0, i32 0
  %14 = load i16, ptr %13, align 8, !tbaa !89
  %15 = zext i16 %14 to i32
  switch i32 %15, label %48 [
    i32 0, label %88
    i32 22, label %16
    i32 60, label %16
    i32 38, label %16
    i32 39, label %16
    i32 47, label %16
    i32 56, label %16
    i32 52, label %16
    i32 53, label %16
    i32 70, label %16
    i32 54, label %16
    i32 55, label %16
    i32 48, label %16
    i32 61, label %16
    i32 62, label %16
    i32 63, label %16
    i32 64, label %16
    i32 72, label %16
  ]

16:                                               ; preds = %3, %3, %3, %3, %3, %3, %3, %3, %3, %3, %3, %3, %3, %3, %3, %3, %3
  br label %17

17:                                               ; preds = %16
  call void @llvm.lifetime.start.p0(i64 8, ptr %9) #9
  %18 = load ptr, ptr %5, align 8, !tbaa !3
  %19 = load ptr, ptr %7, align 8, !tbaa !87
  %20 = getelementptr inbounds nuw %struct.pmix_value, ptr %19, i32 0, i32 0
  %21 = load i16, ptr %20, align 8, !tbaa !89
  %22 = zext i16 %21 to i32
  %23 = call ptr @pmix_pointer_array_get_item(ptr noundef %18, i32 noundef %22)
  store ptr %23, ptr %9, align 8, !tbaa !8
  %24 = load ptr, ptr %9, align 8, !tbaa !8
  %25 = icmp eq ptr null, %24
  br i1 %25, label %26, label %27

26:                                               ; preds = %17
  store i32 -16, ptr %8, align 4, !tbaa !9
  br label %40

27:                                               ; preds = %17
  %28 = load ptr, ptr %9, align 8, !tbaa !8
  %29 = getelementptr inbounds nuw %struct.pmix_bfrop_type_info_t, ptr %28, i32 0, i32 3
  %30 = load ptr, ptr %29, align 8, !tbaa !20
  %31 = load ptr, ptr %5, align 8, !tbaa !3
  %32 = load ptr, ptr %6, align 8, !tbaa !8
  %33 = load ptr, ptr %7, align 8, !tbaa !87
  %34 = getelementptr inbounds nuw %struct.pmix_value, ptr %33, i32 0, i32 1
  %35 = load ptr, ptr %34, align 8, !tbaa !41
  %36 = load ptr, ptr %7, align 8, !tbaa !87
  %37 = getelementptr inbounds nuw %struct.pmix_value, ptr %36, i32 0, i32 0
  %38 = load i16, ptr %37, align 8, !tbaa !89
  %39 = call i32 %30(ptr noundef %31, ptr noundef %32, ptr noundef %35, i32 noundef 1, i16 noundef zeroext %38)
  store i32 %39, ptr %8, align 4, !tbaa !9
  br label %40

40:                                               ; preds = %27, %26
  call void @llvm.lifetime.end.p0(i64 8, ptr %9) #9
  br label %41

41:                                               ; preds = %40
  br label %42

42:                                               ; preds = %41
  %43 = load i32, ptr %8, align 4, !tbaa !9
  %44 = icmp ne i32 0, %43
  br i1 %44, label %45, label %47

45:                                               ; preds = %42
  %46 = load i32, ptr %8, align 4, !tbaa !9
  store i32 %46, ptr %4, align 4
  store i32 1, ptr %10, align 4
  br label %89

47:                                               ; preds = %42
  br label %88

48:                                               ; preds = %3
  br label %49

49:                                               ; preds = %48
  call void @llvm.lifetime.start.p0(i64 8, ptr %11) #9
  %50 = load ptr, ptr %5, align 8, !tbaa !3
  %51 = load ptr, ptr %7, align 8, !tbaa !87
  %52 = getelementptr inbounds nuw %struct.pmix_value, ptr %51, i32 0, i32 0
  %53 = load i16, ptr %52, align 8, !tbaa !89
  %54 = zext i16 %53 to i32
  %55 = call ptr @pmix_pointer_array_get_item(ptr noundef %50, i32 noundef %54)
  store ptr %55, ptr %11, align 8, !tbaa !8
  %56 = load ptr, ptr %11, align 8, !tbaa !8
  %57 = icmp eq ptr null, %56
  br i1 %57, label %58, label %59

58:                                               ; preds = %49
  store i32 -16, ptr %8, align 4, !tbaa !9
  br label %71

59:                                               ; preds = %49
  %60 = load ptr, ptr %11, align 8, !tbaa !8
  %61 = getelementptr inbounds nuw %struct.pmix_bfrop_type_info_t, ptr %60, i32 0, i32 3
  %62 = load ptr, ptr %61, align 8, !tbaa !20
  %63 = load ptr, ptr %5, align 8, !tbaa !3
  %64 = load ptr, ptr %6, align 8, !tbaa !8
  %65 = load ptr, ptr %7, align 8, !tbaa !87
  %66 = getelementptr inbounds nuw %struct.pmix_value, ptr %65, i32 0, i32 1
  %67 = load ptr, ptr %7, align 8, !tbaa !87
  %68 = getelementptr inbounds nuw %struct.pmix_value, ptr %67, i32 0, i32 0
  %69 = load i16, ptr %68, align 8, !tbaa !89
  %70 = call i32 %62(ptr noundef %63, ptr noundef %64, ptr noundef %66, i32 noundef 1, i16 noundef zeroext %69)
  store i32 %70, ptr %8, align 4, !tbaa !9
  br label %71

71:                                               ; preds = %59, %58
  call void @llvm.lifetime.end.p0(i64 8, ptr %11) #9
  br label %72

72:                                               ; preds = %71
  br label %73

73:                                               ; preds = %72
  %74 = load i32, ptr %8, align 4, !tbaa !9
  %75 = icmp eq i32 -16, %74
  br i1 %75, label %76, label %81

76:                                               ; preds = %73
  %77 = load ptr, ptr %7, align 8, !tbaa !87
  %78 = getelementptr inbounds nuw %struct.pmix_value, ptr %77, i32 0, i32 0
  %79 = load i16, ptr %78, align 8, !tbaa !89
  %80 = zext i16 %79 to i32
  call void (i32, ptr, ...) @pmix_output(i32 noundef 0, ptr noundef @.str.9, ptr noundef @.str.1, i32 noundef 999, i32 noundef %80)
  store i32 -1, ptr %4, align 4
  store i32 1, ptr %10, align 4
  br label %89

81:                                               ; preds = %73
  %82 = load i32, ptr %8, align 4, !tbaa !9
  %83 = icmp ne i32 0, %82
  br i1 %83, label %84, label %86

84:                                               ; preds = %81
  %85 = load i32, ptr %8, align 4, !tbaa !9
  store i32 %85, ptr %4, align 4
  store i32 1, ptr %10, align 4
  br label %89

86:                                               ; preds = %81
  br label %87

87:                                               ; preds = %86
  br label %88

88:                                               ; preds = %87, %47, %3
  store i32 0, ptr %4, align 4
  store i32 1, ptr %10, align 4
  br label %89

89:                                               ; preds = %88, %84, %76, %45
  call void @llvm.lifetime.end.p0(i64 4, ptr %8) #9
  %90 = load i32, ptr %4, align 4
  ret i32 %90
}