; Function Attrs: nounwind uwtable
define i32 @pmix_bfrops_base_pack_val(ptr noundef %0, ptr noundef %1, ptr noundef %2) local_unnamed_addr #0 {
  %4 = load i16, ptr %2, align 8, !tbaa !68
  switch i16 %4, label %21 [
    i16 0, label %36
    i16 22, label %5
    i16 60, label %5
    i16 38, label %5
    i16 39, label %5
    i16 47, label %5
    i16 56, label %5
    i16 52, label %5
    i16 53, label %5
    i16 70, label %5
    i16 54, label %5
    i16 55, label %5
    i16 48, label %5
    i16 61, label %5
    i16 62, label %5
    i16 63, label %5
    i16 64, label %5
    i16 72, label %5
  ]

5:                                                ; preds = %3, %3, %3, %3, %3, %3, %3, %3, %3, %3, %3, %3, %3, %3, %3, %3, %3
  %6 = zext nneg i16 %4 to i32
  %7 = getelementptr inbounds nuw i8, ptr %0, i64 128
  %8 = load i32, ptr %7, align 8, !tbaa !15
  %.not.i = icmp sgt i32 %8, %6
  br i1 %.not.i, label %pmix_pointer_array_get_item.exit, label %.thread, !prof !18

pmix_pointer_array_get_item.exit:                 ; preds = %5
  %9 = getelementptr inbounds nuw i8, ptr %0, i64 152
  %10 = load ptr, ptr %9, align 8, !tbaa !19
  %11 = zext nneg i16 %4 to i64
  %12 = getelementptr inbounds nuw ptr, ptr %10, i64 %11
  %13 = load ptr, ptr %12, align 8, !tbaa !20
  %14 = icmp eq ptr %13, null
  br i1 %14, label %.thread, label %15

15:                                               ; preds = %pmix_pointer_array_get_item.exit
  %16 = getelementptr inbounds nuw i8, ptr %13, i64 136
  %17 = load ptr, ptr %16, align 8, !tbaa !21
  %18 = getelementptr inbounds nuw i8, ptr %2, i64 8
  %19 = load ptr, ptr %18, align 8, !tbaa !36
  %20 = tail call i32 %17(ptr noundef nonnull %0, ptr noundef %1, ptr noundef %19, i32 noundef 1, i16 noundef zeroext %4) #8
  %.not = icmp eq i32 %20, 0
  br i1 %.not, label %36, label %.thread

21:                                               ; preds = %3
  %22 = zext i16 %4 to i32
  %23 = getelementptr inbounds nuw i8, ptr %0, i64 128
  %24 = load i32, ptr %23, align 8, !tbaa !15
  %.not.i27 = icmp sgt i32 %24, %22
  br i1 %.not.i27, label %pmix_pointer_array_get_item.exit29, label %.thread35, !prof !18

pmix_pointer_array_get_item.exit29:               ; preds = %21
  %25 = getelementptr inbounds nuw i8, ptr %0, i64 152
  %26 = load ptr, ptr %25, align 8, !tbaa !19
  %27 = zext i16 %4 to i64
  %28 = getelementptr inbounds nuw ptr, ptr %26, i64 %27
  %29 = load ptr, ptr %28, align 8, !tbaa !20
  %30 = icmp eq ptr %29, null
  br i1 %30, label %.thread35, label %31

31:                                               ; preds = %pmix_pointer_array_get_item.exit29
  %32 = getelementptr inbounds nuw i8, ptr %29, i64 136
  %33 = load ptr, ptr %32, align 8, !tbaa !21
  %34 = getelementptr inbounds nuw i8, ptr %2, i64 8
  %35 = tail call i32 %33(ptr noundef nonnull %0, ptr noundef %1, ptr noundef nonnull %34, i32 noundef 1, i16 noundef zeroext %4) #8
  switch i32 %35, label %.thread [
    i32 -16, label %..thread35_crit_edge
    i32 0, label %36
  ]

..thread35_crit_edge:                             ; preds = %31
  %.pre = load i16, ptr %2, align 8, !tbaa !68
  %.pre37 = zext i16 %.pre to i32
  br label %.thread35

.thread35:                                        ; preds = %..thread35_crit_edge, %21, %pmix_pointer_array_get_item.exit29
  %.pre-phi = phi i32 [ %.pre37, %..thread35_crit_edge ], [ %22, %21 ], [ %22, %pmix_pointer_array_get_item.exit29 ]
  tail call void (i32, ptr, ...) @pmix_output(i32 noundef 0, ptr noundef nonnull @.str.9, ptr noundef nonnull @.str.1, i32 noundef 999, i32 noundef %.pre-phi) #8
  br label %.thread

36:                                               ; preds = %31, %15, %3
  br label %.thread

.thread:                                          ; preds = %5, %pmix_pointer_array_get_item.exit, %31, %15, %36, %.thread35
  %.0 = phi i32 [ -1, %.thread35 ], [ 0, %36 ], [ %20, %15 ], [ %35, %31 ], [ -16, %pmix_pointer_array_get_item.exit ], [ -16, %5 ]
  ret i32 %.0
}